target datalayout = "e-m:e-p270:32:32-p271:32:32-p272:64:64-i64:64-i128:128-f80:128-n8:16:32:64-S128"
target triple = "x86_64-pc-linux-gnu"

%struct.x509_store_ctx_st = type { ptr, i32, ptr, ptr, ptr, ptr, ptr, ptr, ptr, ptr, ptr, ptr, ptr, ptr, ptr, ptr, ptr, ptr, ptr, i32, i32, ptr, ptr, i32, i32, i32, ptr, ptr, ptr, i32, i32, ptr, %struct.crypto_ex_data_st }
%struct.crypto_ex_data_st = type { ptr }
%struct.X509_VERIFY_PARAM_st = type { ptr, i64, i64, i64, i32, i32, i32, ptr, ptr }
%struct.X509_VERIFY_PARAM_ID_st = type { ptr, i32, ptr, ptr, i64, ptr, i64 }

; Function Attrs: nounwind uwtable
define internal i32 @check_id_error(ptr noundef %0, i32 noundef %1) #0 {
  %3 = alloca ptr, align 8
  %4 = alloca i32, align 4
  store ptr %0, ptr %3, align 8, !tbaa !6
  store i32 %1, ptr %4, align 4, !tbaa !13
  %5 = load i32, ptr %4, align 4, !tbaa !13
  %6 = load ptr, ptr %3, align 8, !tbaa !6
  %7 = getelementptr inbounds nuw %struct.x509_store_ctx_st, ptr %6, i32 0, i32 25
  store i32 %5, ptr %7, align 8, !tbaa !41
  %8 = load ptr, ptr %3, align 8, !tbaa !6
  %9 = getelementptr inbounds nuw %struct.x509_store_ctx_st, ptr %8, i32 0, i32 2
  %10 = load ptr, ptr %9, align 8, !tbaa !27
  %11 = load ptr, ptr %3, align 8, !tbaa !6
  %12 = getelementptr inbounds nuw %struct.x509_store_ctx_st, ptr %11, i32 0, i32 26
  store ptr %10, ptr %12, align 8, !tbaa !42
  %13 = load ptr, ptr %3, align 8, !tbaa !6
  %14 = getelementptr inbounds nuw %struct.x509_store_ctx_st, ptr %13, i32 0, i32 24
  store i32 0, ptr %14, align 4, !tbaa !43
  %15 = load ptr, ptr %3, align 8, !tbaa !6
  %16 = getelementptr inbounds nuw %struct.x509_store_ctx_st, ptr %15, i32 0, i32 8
  %17 = load ptr, ptr %16, align 8, !tbaa !29
  %18 = load ptr, ptr %3, align 8, !tbaa !6
  %19 = call i32 %17(i32 noundef 0, ptr noundef %18)
  ret i32 %19
}

; Function Attrs: nounwind uwtable
define internal i32 @check_hosts(ptr noundef %0, ptr noundef %1) #0 {
  %3 = alloca i32, align 4
  %4 = alloca ptr, align 8
  %5 = alloca ptr, align 8
  %6 = alloca i64, align 8
  %7 = alloca i64, align 8
  %8 = alloca ptr, align 8
  %9 = alloca i32, align 4
  store ptr %0, ptr %4, align 8, !tbaa !11
  store ptr %1, ptr %5, align 8, !tbaa !77
  call void @llvm.lifetime.start.p0(i64 8, ptr %6) #8
  call void @llvm.lifetime.start.p0(i64 8, ptr %7) #8
  %10 = load ptr, ptr %5, align 8, !tbaa !77
  %11 = getelementptr inbounds nuw %struct.X509_VERIFY_PARAM_ID_st, ptr %10, i32 0, i32 0
  %12 = load ptr, ptr %11, align 8, !tbaa !78
  %13 = call i64 @sk_num(ptr noundef %12)
  store i64 %13, ptr %7, align 8, !tbaa !63
  call void @llvm.lifetime.start.p0(i64 8, ptr %8) #8
  %14 = load ptr, ptr %5, align 8, !tbaa !77
  %15 = getelementptr inbounds nuw %struct.X509_VERIFY_PARAM_ID_st, ptr %14, i32 0, i32 2
  %16 = load ptr, ptr %15, align 8, !tbaa !176
  %17 = icmp ne ptr %16, null
  br i1 %17, label %18, label %24

18:                                               ; preds = %2
  %19 = load ptr, ptr %5, align 8, !tbaa !77
  %20 = getelementptr inbounds nuw %struct.X509_VERIFY_PARAM_ID_st, ptr %19, i32 0, i32 2
  %21 = load ptr, ptr %20, align 8, !tbaa !176
  call void @free(ptr noundef %21) #8
  %22 = load ptr, ptr %5, align 8, !tbaa !77
  %23 = getelementptr inbounds nuw %struct.X509_VERIFY_PARAM_ID_st, ptr %22, i32 0, i32 2
  store ptr null, ptr %23, align 8, !tbaa !176
  br label %24

24:                                               ; preds = %18, %2
  store i64 0, ptr %6, align 8, !tbaa !63
  br label %25

25:                                               ; preds = %48, %24
  %26 = load i64, ptr %6, align 8, !tbaa !63
  %27 = load i64, ptr %7, align 8, !tbaa !63
  %28 = icmp ult i64 %26, %27
  br i1 %28, label %29, label %51

29:                                               ; preds = %25
  %30 = load ptr, ptr %5, align 8, !tbaa !77
  %31 = getelementptr inbounds nuw %struct.X509_VERIFY_PARAM_ID_st, ptr %30, i32 0, i32 0
  %32 = load ptr, ptr %31, align 8, !tbaa !78
  %33 = load i64, ptr %6, align 8, !tbaa !63
  %34 = call ptr @sk_value(ptr noundef %32, i64 noundef %33)
  store ptr %34, ptr %8, align 8, !tbaa !93
  %35 = load ptr, ptr %4, align 8, !tbaa !11
  %36 = load ptr, ptr %8, align 8, !tbaa !93
  %37 = load ptr, ptr %8, align 8, !tbaa !93
  %38 = call i64 @strlen(ptr noundef %37) #9
  %39 = load ptr, ptr %5, align 8, !tbaa !77
  %40 = getelementptr inbounds nuw %struct.X509_VERIFY_PARAM_ID_st, ptr %39, i32 0, i32 1
  %41 = load i32, ptr %40, align 8, !tbaa !177
  %42 = load ptr, ptr %5, align 8, !tbaa !77
  %43 = getelementptr inbounds nuw %struct.X509_VERIFY_PARAM_ID_st, ptr %42, i32 0, i32 2
  %44 = call i32 @X509_check_host(ptr noundef %35, ptr noundef %36, i64 noundef %38, i32 noundef %41, ptr noundef %43)
  %45 = icmp sgt i32 %44, 0
  br i1 %45, label %46, label %47

46:                                               ; preds = %29
  store i32 1, ptr %3, align 4
  store i32 1, ptr %9, align 4
  br label %55

47:                                               ; preds = %29
  br label %48

48:                                               ; preds = %47
  %49 = load i64, ptr %6, align 8, !tbaa !63
  %50 = add i64 %49, 1
  store i64 %50, ptr %6, align 8, !tbaa !63
  br label %25, !llvm.loop !178

51:                                               ; preds = %25
  %52 = load i64, ptr %7, align 8, !tbaa !63
  %53 = icmp eq i64 %52, 0
  %54 = zext i1 %53 to i32
  store i32 %54, ptr %3, align 4
  store i32 1, ptr %9, align 4
  br label %55

55:                                               ; preds = %51, %46
  call void @llvm.lifetime.end.p0(i64 8, ptr %8) #8
  call void @llvm.lifetime.end.p0(i64 8, ptr %7) #8
  call void @llvm.lifetime.end.p0(i64 8, ptr %6) #8
  %56 = load i32, ptr %3, align 4
  ret i32 %56
}

; Function Attrs: nounwind uwtable
define internal i32 @check_id(ptr noundef %0) #0 {
  %2 = alloca i32, align 4
  %3 = alloca ptr, align 8
  %4 = alloca ptr, align 8
  %5 = alloca ptr, align 8
  %6 = alloca ptr, align 8
  %7 = alloca i32, align 4
  store ptr %0, ptr %3, align 8, !tbaa !6
  call void @llvm.lifetime.start.p0(i64 8, ptr %4) #8
  %8 = load ptr, ptr %3, align 8, !tbaa !6
  %9 = getelementptr inbounds nuw %struct.x509_store_ctx_st, ptr %8, i32 0, i32 5
  %10 = load ptr, ptr %9, align 8, !tbaa !15
  store ptr %10, ptr %4, align 8, !tbaa !25
  call void @llvm.lifetime.start.p0(i64 8, ptr %5) #8
  %11 = load ptr, ptr %4, align 8, !tbaa !25
  %12 = getelementptr inbounds nuw %struct.X509_VERIFY_PARAM_st, ptr %11, i32 0, i32 8
  %13 = load ptr, ptr %12, align 8, !tbaa !76
  store ptr %13, ptr %5, align 8, !tbaa !77
  call void @llvm.lifetime.start.p0(i64 8, ptr %6) #8
  %14 = load ptr, ptr %3, align 8, !tbaa !6
  %15 = getelementptr inbounds nuw %struct.x509_store_ctx_st, ptr %14, i32 0, i32 2
  %16 = load ptr, ptr %15, align 8, !tbaa !27
  store ptr %16, ptr %6, align 8, !tbaa !11
  %17 = load ptr, ptr %5, align 8, !tbaa !77
  %18 = getelementptr inbounds nuw %struct.X509_VERIFY_PARAM_ID_st, ptr %17, i32 0, i32 0
  %19 = load ptr, ptr %18, align 8, !tbaa !78
  %20 = icmp ne ptr %19, null
  br i1 %20, label %21, label %32

21:                                               ; preds = %1
  %22 = load ptr, ptr %6, align 8, !tbaa !11
  %23 = load ptr, ptr %5, align 8, !tbaa !77
  %24 = call i32 @check_hosts(ptr noundef %22, ptr noundef %23)
  %25 = icmp sle i32 %24, 0
  br i1 %25, label %26, label %32

26:                                               ; preds = %21
  %27 = load ptr, ptr %3, align 8, !tbaa !6
  %28 = call i32 @check_id_error(ptr noundef %27, i32 noundef 62)
  %29 = icmp ne i32 %28, 0
  br i1 %29, label %31, label %30

30:                                               ; preds = %26
  store i32 0, ptr %2, align 4
  store i32 1, ptr %7, align 4
  br label %75

31:                                               ; preds = %26
  br label %32

32:                                               ; preds = %31, %21, %1
  %33 = load ptr, ptr %5, align 8, !tbaa !77
  %34 = getelementptr inbounds nuw %struct.X509_VERIFY_PARAM_ID_st, ptr %33, i32 0, i32 3
  %35 = load ptr, ptr %34, align 8, !tbaa !81
  %36 = icmp ne ptr %35, null
  br i1 %36, label %37, label %53

37:                                               ; preds = %32
  %38 = load ptr, ptr %6, align 8, !tbaa !11
  %39 = load ptr, ptr %5, align 8, !tbaa !77
  %40 = getelementptr inbounds nuw %struct.X509_VERIFY_PARAM_ID_st, ptr %39, i32 0, i32 3
  %41 = load ptr, ptr %40, align 8, !tbaa !81
  %42 = load ptr, ptr %5, align 8, !tbaa !77
  %43 = getelementptr inbounds nuw %struct.X509_VERIFY_PARAM_ID_st, ptr %42, i32 0, i32 4
  %44 = load i64, ptr %43, align 8, !tbaa !82
  %45 = call i32 @X509_check_email(ptr noundef %38, ptr noundef %41, i64 noundef %44, i32 noundef 0)
  %46 = icmp sle i32 %45, 0
  br i1 %46, label %47, label %53

47:                                               ; preds = %37
  %48 = load ptr, ptr %3, align 8, !tbaa !6
  %49 = call i32 @check_id_error(ptr noundef %48, i32 noundef 63)
  %50 = icmp ne i32 %49, 0
  br i1 %50, label %52, label %51

51:                                               ; preds = %47
  store i32 0, ptr %2, align 4
  store i32 1, ptr %7, align 4
  br label %75

52:                                               ; preds = %47
  br label %53

53:                                               ; preds = %52, %37, %32
  %54 = load ptr, ptr %5, align 8, !tbaa !77
  %55 = getelementptr inbounds nuw %struct.X509_VERIFY_PARAM_ID_st, ptr %54, i32 0, i32 5
  %56 = load ptr, ptr %55, align 8, !tbaa !83
  %57 = icmp ne ptr %56, null
  br i1 %57, label %58, label %74

58:                                               ; preds = %53
  %59 = load ptr, ptr %6, align 8, !tbaa !11
  %60 = load ptr, ptr %5, align 8, !tbaa !77
  %61 = getelementptr inbounds nuw %struct.X509_VERIFY_PARAM_ID_st, ptr %60, i32 0, i32 5
  %62 = load ptr, ptr %61, align 8, !tbaa !83
  %63 = load ptr, ptr %5, align 8, !tbaa !77
  %64 = getelementptr inbounds nuw %struct.X509_VERIFY_PARAM_ID_st, ptr %63, i32 0, i32 6
  %65 = load i64, ptr %64, align 8, !tbaa !84
  %66 = call i32 @X509_check_ip(ptr noundef %59, ptr noundef %62, i64 noundef %65, i32 noundef 0)
  %67 = icmp sle i32 %66, 0
  br i1 %67, label %68, label %74

68:                                               ; preds = %58
  %69 = load ptr, ptr %3, align 8, !tbaa !6
  %70 = call i32 @check_id_error(ptr noundef %69, i32 noundef 64)
  %71 = icmp ne i32 %70, 0
  br i1 %71, label %73, label %72

72:                                               ; preds = %68
  store i32 0, ptr %2, align 4
  store i32 1, ptr %7, align 4
  br label %75

73:                                               ; preds = %68
  br label %74

74:                                               ; preds = %73, %58, %53
  store i32 1, ptr %2, align 4
  store i32 1, ptr %7, align 4
  br label %75

75:                                               ; preds = %74, %72, %51, %30
  call void @llvm.lifetime.end.p0(i64 8, ptr %6) #8
  call void @llvm.lifetime.end.p0(i64 8, ptr %5) #8
  call void @llvm.lifetime.end.p0(i64 8, ptr %4) #8
  %76 = load i32, ptr %2, align 4
  ret i32 %76
}