; Function Attrs: nounwind uwtable
define internal fastcc range(i32 0, 2) i32 @check_id(ptr noundef %0) unnamed_addr #0 {
  %2 = getelementptr inbounds nuw i8, ptr %0, i64 40
  %3 = load ptr, ptr %2, align 8, !tbaa !6
  %4 = getelementptr inbounds nuw i8, ptr %3, i64 56
  %5 = load ptr, ptr %4, align 8, !tbaa !71
  %6 = getelementptr inbounds nuw i8, ptr %0, i64 16
  %7 = load ptr, ptr %6, align 8, !tbaa !22
  %8 = load ptr, ptr %5, align 8, !tbaa !72
  %.not = icmp eq ptr %8, null
  br i1 %.not, label %check_hosts.exit.thread, label %9

9:                                                ; preds = %1
  %10 = tail call i64 @sk_num(ptr noundef nonnull %8) #14
  %11 = getelementptr inbounds nuw i8, ptr %5, i64 16
  %12 = load ptr, ptr %11, align 8, !tbaa !75
  %.not.i = icmp eq ptr %12, null
  br i1 %.not.i, label %14, label %13

13:                                               ; preds = %9
  tail call void @free(ptr noundef nonnull %12) #14
  store ptr null, ptr %11, align 8, !tbaa !75
  br label %14

14:                                               ; preds = %13, %9
  %.not19.i = icmp eq i64 %10, 0
  br i1 %.not19.i, label %check_hosts.exit.thread, label %.lr.ph.i

.lr.ph.i:                                         ; preds = %14
  %15 = getelementptr inbounds nuw i8, ptr %5, i64 8
  br label %18

16:                                               ; preds = %18
  %17 = add nuw i64 %.01518.i, 1
  %exitcond.not.i = icmp eq i64 %17, %10
  br i1 %exitcond.not.i, label %25, label %18, !llvm.loop !76

18:                                               ; preds = %16, %.lr.ph.i
  %.01518.i = phi i64 [ 0, %.lr.ph.i ], [ %17, %16 ]
  %19 = load ptr, ptr %5, align 8, !tbaa !72
  %20 = tail call ptr @sk_value(ptr noundef %19, i64 noundef %.01518.i) #14
  %21 = tail call i64 @strlen(ptr noundef nonnull dereferenceable(1) %20) #15
  %22 = load i32, ptr %15, align 8, !tbaa !77
  %23 = tail call i32 @X509_check_host(ptr noundef %7, ptr noundef nonnull %20, i64 noundef %21, i32 noundef %22, ptr noundef nonnull %11) #14
  %24 = icmp sgt i32 %23, 0
  br i1 %24, label %check_hosts.exit.thread, label %16

25:                                               ; preds = %16
  %26 = getelementptr inbounds nuw i8, ptr %0, i64 184
  store i32 62, ptr %26, align 8, !tbaa !50
  %27 = load ptr, ptr %6, align 8, !tbaa !22
  %28 = getelementptr inbounds nuw i8, ptr %0, i64 192
  store ptr %27, ptr %28, align 8, !tbaa !51
  %29 = getelementptr inbounds nuw i8, ptr %0, i64 180
  store i32 0, ptr %29, align 4, !tbaa !52
  %30 = getelementptr inbounds nuw i8, ptr %0, i64 64
  %31 = load ptr, ptr %30, align 8, !tbaa !24
  %32 = tail call i32 %31(i32 noundef 0, ptr noundef %0) #14
  %.not20 = icmp eq i32 %32, 0
  br i1 %.not20, label %65, label %check_hosts.exit.thread

check_hosts.exit.thread:                          ; preds = %18, %14, %25, %1
  %33 = getelementptr inbounds nuw i8, ptr %5, i64 24
  %34 = load ptr, ptr %33, align 8, !tbaa !78
  %.not21 = icmp eq ptr %34, null
  br i1 %.not21, label %48, label %35

35:                                               ; preds = %check_hosts.exit.thread
  %36 = getelementptr inbounds nuw i8, ptr %5, i64 32
  %37 = load i64, ptr %36, align 8, !tbaa !79
  %38 = tail call i32 @X509_check_email(ptr noundef %7, ptr noundef nonnull %34, i64 noundef %37, i32 noundef 0) #14
  %39 = icmp slt i32 %38, 1
  br i1 %39, label %40, label %48

40:                                               ; preds = %35
  %41 = getelementptr inbounds nuw i8, ptr %0, i64 184
  store i32 63, ptr %41, align 8, !tbaa !50
  %42 = load ptr, ptr %6, align 8, !tbaa !22
  %43 = getelementptr inbounds nuw i8, ptr %0, i64 192
  store ptr %42, ptr %43, align 8, !tbaa !51
  %44 = getelementptr inbounds nuw i8, ptr %0, i64 180
  store i32 0, ptr %44, align 4, !tbaa !52
  %45 = getelementptr inbounds nuw i8, ptr %0, i64 64
  %46 = load ptr, ptr %45, align 8, !tbaa !24
  %47 = tail call i32 %46(i32 noundef 0, ptr noundef %0) #14
  %.not22 = icmp eq i32 %47, 0
  br i1 %.not22, label %65, label %48

48:                                               ; preds = %40, %35, %check_hosts.exit.thread
  %49 = getelementptr inbounds nuw i8, ptr %5, i64 40
  %50 = load ptr, ptr %49, align 8, !tbaa !80
  %.not23 = icmp eq ptr %50, null
  br i1 %.not23, label %64, label %51

51:                                               ; preds = %48
  %52 = getelementptr inbounds nuw i8, ptr %5, i64 48
  %53 = load i64, ptr %52, align 8, !tbaa !81
  %54 = tail call i32 @X509_check_ip(ptr noundef %7, ptr noundef nonnull %50, i64 noundef %53, i32 noundef 0) #14
  %55 = icmp slt i32 %54, 1
  br i1 %55, label %56, label %64

56:                                               ; preds = %51
  %57 = getelementptr inbounds nuw i8, ptr %0, i64 184
  store i32 64, ptr %57, align 8, !tbaa !50
  %58 = load ptr, ptr %6, align 8, !tbaa !22
  %59 = getelementptr inbounds nuw i8, ptr %0, i64 192
  store ptr %58, ptr %59, align 8, !tbaa !51
  %60 = getelementptr inbounds nuw i8, ptr %0, i64 180
  store i32 0, ptr %60, align 4, !tbaa !52
  %61 = getelementptr inbounds nuw i8, ptr %0, i64 64
  %62 = load ptr, ptr %61, align 8, !tbaa !24
  %63 = tail call i32 %62(i32 noundef 0, ptr noundef %0) #14
  %.not24 = icmp eq i32 %63, 0
  br i1 %.not24, label %65, label %64

64:                                               ; preds = %56, %51, %48
  br label %65

65:                                               ; preds = %56, %40, %25, %64
  %.0 = phi i32 [ 1, %64 ], [ 0, %25 ], [ 0, %40 ], [ 0, %56 ]
  ret i32 %.0
}